target datalayout = "e-m:e-p270:32:32-p271:32:32-p272:64:64-i64:64-i128:128-f80:128-n8:16:32:64-S128"
target triple = "x86_64-pc-linux-gnu"

%struct.object_id = type { [32 x i8], i32 }

@.str.46 = private unnamed_addr constant [1 x i8] zeroinitializer, align 1
@git_gettext_enabled = external global i32, align 4
@.str.204 = private unnamed_addr constant [32 x i8] c"autostash reference is a symref\00", align 1

; Function Attrs: inlinehint nounwind uwtable
define internal i32 @const_error() #1 {
  ret i32 -1
}

; Function Attrs: inlinehint nounwind uwtable
define internal ptr @_(ptr noundef %0) #1 {
  %2 = alloca ptr, align 8
  %3 = alloca ptr, align 8
  store ptr %0, ptr %3, align 8, !tbaa !4
  %4 = load ptr, ptr %3, align 8, !tbaa !4
  %5 = load i8, ptr %4, align 1, !tbaa !30
  %6 = icmp ne i8 %5, 0
  br i1 %6, label %8, label %7

7:                                                ; preds = %1
  store ptr @.str.46, ptr %2, align 8
  br label %16

8:                                                ; preds = %1
  %9 = load i32, ptr @git_gettext_enabled, align 4, !tbaa !29
  %10 = icmp ne i32 %9, 0
  br i1 %10, label %13, label %11

11:                                               ; preds = %8
  %12 = load ptr, ptr %3, align 8, !tbaa !4
  store ptr %12, ptr %2, align 8
  br label %16

13:                                               ; preds = %8
  %14 = load ptr, ptr %3, align 8, !tbaa !4
  %15 = call ptr @dcgettext(ptr noundef null, ptr noundef %14, i32 noundef 5) #11
  store ptr %15, ptr %2, align 8
  br label %16

16:                                               ; preds = %13, %11, %7
  %17 = load ptr, ptr %2, align 8
  ret ptr %17
}

; Function Attrs: nounwind uwtable
define internal i32 @apply_save_autostash_ref(ptr noundef %0, ptr noundef %1, i32 noundef %2) #0 {
  %4 = alloca i32, align 4
  %5 = alloca ptr, align 8
  %6 = alloca ptr, align 8
  %7 = alloca i32, align 4
  %8 = alloca %struct.object_id, align 4
  %9 = alloca [65 x i8], align 16
  %10 = alloca i32, align 4
  %11 = alloca i32, align 4
  %12 = alloca i32, align 4
  store ptr %0, ptr %5, align 8, !tbaa !9
  store ptr %1, ptr %6, align 8, !tbaa !4
  store i32 %2, ptr %7, align 4, !tbaa !29
  call void @llvm.lifetime.start.p0(i64 36, ptr %8) #11
  call void @llvm.lifetime.start.p0(i64 65, ptr %9) #11
  call void @llvm.lifetime.start.p0(i64 4, ptr %10) #11
  call void @llvm.lifetime.start.p0(i64 4, ptr %11) #11
  %13 = load ptr, ptr %5, align 8, !tbaa !9
  %14 = call ptr @get_main_ref_store(ptr noundef %13)
  %15 = load ptr, ptr %6, align 8, !tbaa !4
  %16 = call i32 @refs_ref_exists(ptr noundef %14, ptr noundef %15)
  %17 = icmp ne i32 %16, 0
  br i1 %17, label %19, label %18

18:                                               ; preds = %3
  store i32 0, ptr %4, align 4
  store i32 1, ptr %12, align 4
  br label %45

19:                                               ; preds = %3
  %20 = load ptr, ptr %5, align 8, !tbaa !9
  %21 = call ptr @get_main_ref_store(ptr noundef %20)
  %22 = load ptr, ptr %6, align 8, !tbaa !4
  %23 = call ptr @refs_resolve_ref_unsafe(ptr noundef %21, ptr noundef %22, i32 noundef 1, ptr noundef %8, ptr noundef %10)
  %24 = icmp ne ptr %23, null
  br i1 %24, label %26, label %25

25:                                               ; preds = %19
  store i32 -1, ptr %4, align 4
  store i32 1, ptr %12, align 4
  br label %45

26:                                               ; preds = %19
  %27 = load i32, ptr %10, align 4, !tbaa !29
  %28 = and i32 %27, 1
  %29 = icmp ne i32 %28, 0
  br i1 %29, label %30, label %34

30:                                               ; preds = %26
  %31 = call ptr @_(ptr noundef @.str.204)
  %32 = call i32 (ptr, ...) @error(ptr noundef %31)
  %33 = call i32 @const_error()
  store i32 %33, ptr %4, align 4
  store i32 1, ptr %12, align 4
  br label %45

34:                                               ; preds = %26
  %35 = getelementptr inbounds [65 x i8], ptr %9, i64 0, i64 0
  %36 = call ptr @oid_to_hex_r(ptr noundef %35, ptr noundef %8)
  %37 = getelementptr inbounds [65 x i8], ptr %9, i64 0, i64 0
  %38 = load i32, ptr %7, align 4, !tbaa !29
  %39 = call i32 @apply_save_autostash_oid(ptr noundef %37, i32 noundef %38)
  store i32 %39, ptr %11, align 4, !tbaa !29
  %40 = load ptr, ptr %5, align 8, !tbaa !9
  %41 = call ptr @get_main_ref_store(ptr noundef %40)
  %42 = load ptr, ptr %6, align 8, !tbaa !4
  %43 = call i32 @refs_delete_ref(ptr noundef %41, ptr noundef @.str.46, ptr noundef %42, ptr noundef %8, i32 noundef 1)
  %44 = load i32, ptr %11, align 4, !tbaa !29
  store i32 %44, ptr %4, align 4
  store i32 1, ptr %12, align 4
  br label %45

45:                                               ; preds = %34, %30, %25, %18
  call void @llvm.lifetime.end.p0(i64 4, ptr %11) #11
  call void @llvm.lifetime.end.p0(i64 4, ptr %10) #11
  call void @llvm.lifetime.end.p0(i64 65, ptr %9) #11
  call void @llvm.lifetime.end.p0(i64 36, ptr %8) #11
  %46 = load i32, ptr %4, align 4
  ret i32 %46
}