; Function Attrs: nounwind uwtable
define internal fastcc i32 @apply_save_autostash_ref(ptr noundef %0, ptr noundef %1, i32 noundef range(i32 0, 2) %2) unnamed_addr #0 {
  %4 = alloca %struct.object_id, align 4
  %5 = alloca [65 x i8], align 16
  %6 = alloca i32, align 4
  call void @llvm.lifetime.start.p0(i64 36, ptr nonnull %4) #20
  call void @llvm.lifetime.start.p0(i64 65, ptr nonnull %5) #20
  call void @llvm.lifetime.start.p0(i64 4, ptr nonnull %6) #20
  %7 = tail call ptr @get_main_ref_store(ptr noundef %0) #20
  %8 = tail call i32 @refs_ref_exists(ptr noundef %7, ptr noundef %1) #20
  %.not = icmp eq i32 %8, 0
  br i1 %.not, label %25, label %9

9:                                                ; preds = %3
  %10 = tail call ptr @get_main_ref_store(ptr noundef %0) #20
  %11 = call ptr @refs_resolve_ref_unsafe(ptr noundef %10, ptr noundef %1, i32 noundef 1, ptr noundef nonnull %4, ptr noundef nonnull %6) #20
  %.not8 = icmp eq ptr %11, null
  br i1 %.not8, label %25, label %12

12:                                               ; preds = %9
  %13 = load i32, ptr %6, align 4, !tbaa !21
  %14 = and i32 %13, 1
  %.not9 = icmp eq i32 %14, 0
  br i1 %.not9, label %20, label %15

15:                                               ; preds = %12
  %16 = load i32, ptr @git_gettext_enabled, align 4, !tbaa !21
  %.not4.i = icmp eq i32 %16, 0
  br i1 %.not4.i, label %_.exit, label %17

17:                                               ; preds = %15
  %18 = call ptr @dcgettext(ptr noundef null, ptr noundef nonnull @.str.204, i32 noundef 5) #20
  br label %_.exit

_.exit:                                           ; preds = %15, %17
  %.0.i = phi ptr [ %18, %17 ], [ @.str.204, %15 ]
  %19 = call i32 (ptr, ...) @error(ptr noundef %.0.i) #20
  br label %25

20:                                               ; preds = %12
  %21 = call ptr @oid_to_hex_r(ptr noundef nonnull %5, ptr noundef nonnull %4) #20
  %22 = call fastcc i32 @apply_save_autostash_oid(ptr noundef nonnull %5, i32 noundef %2)
  %23 = call ptr @get_main_ref_store(ptr noundef %0) #20
  %24 = call i32 @refs_delete_ref(ptr noundef %23, ptr noundef nonnull @.str.46, ptr noundef %1, ptr noundef nonnull %4, i32 noundef 1) #20
  br label %25

25:                                               ; preds = %9, %3, %20, %_.exit
  %.0 = phi i32 [ -1, %_.exit ], [ %22, %20 ], [ 0, %3 ], [ -1, %9 ]
  call void @llvm.lifetime.end.p0(i64 4, ptr nonnull %6) #20
  call void @llvm.lifetime.end.p0(i64 65, ptr nonnull %5) #20
  call void @llvm.lifetime.end.p0(i64 36, ptr nonnull %4) #20
  ret i32 %.0
}